target datalayout = "e-m:e-p270:32:32-p271:32:32-p272:64:64-i64:64-i128:128-f80:128-n8:16:32:64-S128"
target triple = "x86_64-pc-linux-gnu"

%struct.slurm_conf_t = type { i64, ptr, i16, ptr, ptr, ptr, ptr, ptr, i16, ptr, ptr, ptr, ptr, ptr, ptr, ptr, i16, ptr, ptr, ptr, ptr, i16, ptr, ptr, ptr, i64, ptr, ptr, ptr, ptr, i16, ptr, ptr, i16, i32, ptr, i32, ptr, i32, i32, ptr, ptr, i64, i64, ptr, i16, i16, ptr, i32, i32, ptr, i32, ptr, i32, i16, i16, i16, ptr, i16, i16, ptr, ptr, i32, i16, i16, ptr, i32, i16, ptr, ptr, ptr, ptr, i16, ptr, ptr, ptr, ptr, i32, ptr, ptr, ptr, ptr, i16, i16, ptr, i32, i32, i32, i16, i16, ptr, ptr, i16, ptr, ptr, i32, i32, i32, i32, i32, i64, i32, i32, i16, ptr, ptr, i32, ptr, ptr, ptr, i16, i32, ptr, ptr, i16, ptr, ptr, i32, i16, ptr, ptr, ptr, ptr, i32, i32, i16, i16, i32, ptr, i16, ptr, i32, i32, i32, i32, i32, i32, ptr, i16, ptr, ptr, i32, i16, ptr, i32, i16, i16, ptr, ptr, ptr, i16, ptr, ptr, ptr, ptr, i16, i16, ptr, i16, ptr, i16, ptr, i16, ptr, i16, ptr, ptr, ptr, ptr, i16, ptr, ptr, ptr, i32, ptr, i32, ptr, ptr, i16, ptr, ptr, i32, i16, ptr, ptr, i16, i16, ptr, i16, ptr, ptr, ptr, i32, ptr, i16, i16, ptr, ptr, ptr, ptr, ptr, ptr, ptr, ptr, i16, i32, i16, ptr, ptr, ptr, ptr, i32, ptr, ptr, ptr, i16, ptr, ptr, ptr, i16, ptr, i16, ptr, i16, i16, ptr }
%struct.acct_gather_energy = type { i32, i64, i64, i32, i64, i64, i64 }

@plugin_type = dso_local constant [26 x i8] c"acct_gather_energy/ibmaem\00", align 16
@_get_joules_task.readings = internal global i32 0, align 4
@slurm_conf = external global %struct.slurm_conf_t, align 8
@.str.3 = private unnamed_addr constant [92 x i8] c"%s: %s: ENERGY: %lu Joules consumed over last %ld secs. Currently at %u watts, ave watts %u\00", align 1
@__func__._get_joules_task = private unnamed_addr constant [17 x i8] c"_get_joules_task\00", align 1

; Function Attrs: nounwind uwtable
define internal void @_get_joules_task(ptr noundef %0) #0 {
  %2 = alloca ptr, align 8
  %3 = alloca i64, align 8
  %4 = alloca i64, align 8
  %5 = alloca i32, align 4
  %6 = alloca i64, align 8
  %7 = alloca i32, align 4
  store ptr %0, ptr %2, align 8
  call void @llvm.lifetime.start.p0(i64 8, ptr %3) #5
  call void @llvm.lifetime.start.p0(i64 8, ptr %4) #5
  store i64 0, ptr %4, align 8
  call void @llvm.lifetime.start.p0(i64 4, ptr %5) #5
  call void @llvm.lifetime.start.p0(i64 8, ptr %6) #5
  %8 = load ptr, ptr %2, align 8
  %9 = getelementptr inbounds nuw %struct.acct_gather_energy, ptr %8, i32 0, i32 3
  %10 = load i32, ptr %9, align 8
  %11 = icmp eq i32 %10, -2
  br i1 %11, label %12, label %13

12:                                               ; preds = %1
  store i32 1, ptr %7, align 4
  br label %101

13:                                               ; preds = %1
  %14 = call i64 @time(ptr noundef null) #5
  store i64 %14, ptr %6, align 8
  %15 = call i64 @_get_latest_stats(i32 noundef 0)
  store i64 %15, ptr %3, align 8
  %16 = call i64 @_get_latest_stats(i32 noundef 1)
  %17 = udiv i64 %16, 1000000
  %18 = trunc i64 %17 to i32
  store i32 %18, ptr %5, align 4
  %19 = load ptr, ptr %2, align 8
  %20 = getelementptr inbounds nuw %struct.acct_gather_energy, ptr %19, i32 0, i32 4
  %21 = load i64, ptr %20, align 8
  %22 = icmp ne i64 %21, 0
  br i1 %22, label %23, label %49

23:                                               ; preds = %13
  %24 = load i64, ptr %3, align 8
  %25 = load ptr, ptr %2, align 8
  %26 = getelementptr inbounds nuw %struct.acct_gather_energy, ptr %25, i32 0, i32 4
  %27 = load i64, ptr %26, align 8
  %28 = sub i64 %24, %27
  %29 = udiv i64 %28, 1000000
  store i64 %29, ptr %4, align 8
  %30 = load i64, ptr %4, align 8
  %31 = load ptr, ptr %2, align 8
  %32 = getelementptr inbounds nuw %struct.acct_gather_energy, ptr %31, i32 0, i32 2
  %33 = load i64, ptr %32, align 8
  %34 = add i64 %33, %30
  store i64 %34, ptr %32, align 8
  %35 = load ptr, ptr %2, align 8
  %36 = getelementptr inbounds nuw %struct.acct_gather_energy, ptr %35, i32 0, i32 0
  %37 = load i32, ptr %36, align 8
  %38 = load i32, ptr @_get_joules_task.readings, align 4
  %39 = mul i32 %37, %38
  %40 = load ptr, ptr %2, align 8
  %41 = getelementptr inbounds nuw %struct.acct_gather_energy, ptr %40, i32 0, i32 3
  %42 = load i32, ptr %41, align 8
  %43 = add i32 %39, %42
  %44 = load i32, ptr @_get_joules_task.readings, align 4
  %45 = add i32 %44, 1
  %46 = udiv i32 %43, %45
  %47 = load ptr, ptr %2, align 8
  %48 = getelementptr inbounds nuw %struct.acct_gather_energy, ptr %47, i32 0, i32 0
  store i32 %46, ptr %48, align 8
  br label %56

49:                                               ; preds = %13
  %50 = load i64, ptr %3, align 8
  %51 = udiv i64 %50, 1000000
  %52 = load ptr, ptr %2, align 8
  %53 = getelementptr inbounds nuw %struct.acct_gather_energy, ptr %52, i32 0, i32 1
  store i64 %51, ptr %53, align 8
  %54 = load ptr, ptr %2, align 8
  %55 = getelementptr inbounds nuw %struct.acct_gather_energy, ptr %54, i32 0, i32 0
  store i32 0, ptr %55, align 8
  br label %56

56:                                               ; preds = %49, %23
  %57 = load i32, ptr @_get_joules_task.readings, align 4
  %58 = add i32 %57, 1
  store i32 %58, ptr @_get_joules_task.readings, align 4
  %59 = load i32, ptr %5, align 4
  %60 = load ptr, ptr %2, align 8
  %61 = getelementptr inbounds nuw %struct.acct_gather_energy, ptr %60, i32 0, i32 3
  store i32 %59, ptr %61, align 8
  br label %62

62:                                               ; preds = %56
  %63 = load i64, ptr getelementptr inbounds nuw (%struct.slurm_conf_t, ptr @slurm_conf, i32 0, i32 42), align 8
  %64 = and i64 %63, 262144
  %65 = icmp ne i64 %64, 0
  br i1 %65, label %66, label %92

66:                                               ; preds = %62
  br label %67

67:                                               ; preds = %66
  %68 = call i32 @slurm_get_log_level()
  %69 = icmp sge i32 %68, 4
  br i1 %69, label %70, label %89

70:                                               ; preds = %67
  %71 = load i64, ptr %4, align 8
  %72 = load ptr, ptr %2, align 8
  %73 = getelementptr inbounds nuw %struct.acct_gather_energy, ptr %72, i32 0, i32 5
  %74 = load i64, ptr %73, align 8
  %75 = icmp ne i64 %74, 0
  br i1 %75, label %76, label %82

76:                                               ; preds = %70
  %77 = load i64, ptr %6, align 8
  %78 = load ptr, ptr %2, align 8
  %79 = getelementptr inbounds nuw %struct.acct_gather_energy, ptr %78, i32 0, i32 5
  %80 = load i64, ptr %79, align 8
  %81 = sub nsw i64 %77, %80
  br label %83

82:                                               ; preds = %70
  br label %83

83:                                               ; preds = %82, %76
  %84 = phi i64 [ %81, %76 ], [ 0, %82 ]
  %85 = load i32, ptr %5, align 4
  %86 = load ptr, ptr %2, align 8
  %87 = getelementptr inbounds nuw %struct.acct_gather_energy, ptr %86, i32 0, i32 0
  %88 = load i32, ptr %87, align 8
  call void (i32, ptr, ...) @slurm_log_var(i32 noundef 4, ptr noundef @.str.3, ptr noundef @plugin_type, ptr noundef @__func__._get_joules_task, i64 noundef %71, i64 noundef %84, i32 noundef %85, i32 noundef %88)
  br label %89

89:                                               ; preds = %83, %67
  br label %90

90:                                               ; preds = %89
  br label %91

91:                                               ; preds = %90
  br label %92

92:                                               ; preds = %91, %62
  br label %93

93:                                               ; preds = %92
  br label %94

94:                                               ; preds = %93
  %95 = load i64, ptr %3, align 8
  %96 = load ptr, ptr %2, align 8
  %97 = getelementptr inbounds nuw %struct.acct_gather_energy, ptr %96, i32 0, i32 4
  store i64 %95, ptr %97, align 8
  %98 = load i64, ptr %6, align 8
  %99 = load ptr, ptr %2, align 8
  %100 = getelementptr inbounds nuw %struct.acct_gather_energy, ptr %99, i32 0, i32 5
  store i64 %98, ptr %100, align 8
  store i32 0, ptr %7, align 4
  br label %101

101:                                              ; preds = %94, %12
  call void @llvm.lifetime.end.p0(i64 8, ptr %6) #5
  call void @llvm.lifetime.end.p0(i64 4, ptr %5) #5
  call void @llvm.lifetime.end.p0(i64 8, ptr %4) #5
  call void @llvm.lifetime.end.p0(i64 8, ptr %3) #5
  %102 = load i32, ptr %7, align 4
  switch i32 %102, label %104 [
    i32 0, label %103
    i32 1, label %103
  ]

103:                                              ; preds = %101, %101
  ret void

104:                                              ; preds = %101
  unreachable
}