; Function Attrs: nounwind uwtable
define internal fastcc void @_get_joules_task(ptr noundef captures(none) %0) unnamed_addr #0 {
  %2 = getelementptr inbounds nuw i8, ptr %0, i64 24
  %3 = load i32, ptr %2, align 8
  %4 = icmp eq i32 %3, -2
  br i1 %4, label %42, label %5

5:                                                ; preds = %1
  %6 = tail call i64 @time(ptr noundef null) #8
  %7 = tail call fastcc i64 @_get_latest_stats(i32 noundef 0)
  %8 = tail call fastcc i64 @_get_latest_stats(i32 noundef 1)
  %9 = udiv i64 %8, 1000000
  %10 = trunc i64 %9 to i32
  %11 = getelementptr inbounds nuw i8, ptr %0, i64 32
  %12 = load i64, ptr %11, align 8
  %.not = icmp eq i64 %12, 0
  br i1 %.not, label %26, label %13

13:                                               ; preds = %5
  %14 = sub i64 %7, %12
  %15 = udiv i64 %14, 1000000
  %16 = getelementptr inbounds nuw i8, ptr %0, i64 16
  %17 = load i64, ptr %16, align 8
  %18 = add i64 %17, %15
  store i64 %18, ptr %16, align 8
  %19 = load i32, ptr %0, align 8
  %20 = load i32, ptr @_get_joules_task.readings, align 4
  %21 = mul i32 %20, %19
  %22 = load i32, ptr %2, align 8
  %23 = add i32 %21, %22
  %24 = add i32 %20, 1
  %25 = udiv i32 %23, %24
  br label %29

26:                                               ; preds = %5
  %27 = udiv i64 %7, 1000000
  %28 = getelementptr inbounds nuw i8, ptr %0, i64 8
  store i64 %27, ptr %28, align 8
  %.pre = load i32, ptr @_get_joules_task.readings, align 4
  %.pre27 = add i32 %.pre, 1
  br label %29

29:                                               ; preds = %26, %13
  %.pre-phi = phi i32 [ %.pre27, %26 ], [ %24, %13 ]
  %storemerge = phi i32 [ 0, %26 ], [ %25, %13 ]
  %.0 = phi i64 [ 0, %26 ], [ %15, %13 ]
  store i32 %storemerge, ptr %0, align 8
  store i32 %.pre-phi, ptr @_get_joules_task.readings, align 4
  store i32 %10, ptr %2, align 8
  %30 = load i64, ptr getelementptr inbounds nuw (i8, ptr @slurm_conf, i64 320), align 8
  %31 = and i64 %30, 262144
  %.not25 = icmp eq i64 %31, 0
  br i1 %.not25, label %40, label %32

32:                                               ; preds = %29
  %33 = tail call i32 @slurm_get_log_level() #8
  %34 = icmp sgt i32 %33, 3
  br i1 %34, label %35, label %40

35:                                               ; preds = %32
  %36 = getelementptr inbounds nuw i8, ptr %0, i64 40
  %37 = load i64, ptr %36, align 8
  %.not26 = icmp eq i64 %37, 0
  %38 = sub nsw i64 %6, %37
  %spec.select = select i1 %.not26, i64 0, i64 %38
  %39 = load i32, ptr %0, align 8
  tail call void (i32, ptr, ...) @slurm_log_var(i32 noundef 4, ptr noundef nonnull @.str.3, ptr noundef nonnull @plugin_type, ptr noundef nonnull @__func__._get_joules_task, i64 noundef %.0, i64 noundef %spec.select, i32 noundef %10, i32 noundef %39) #8
  br label %40

40:                                               ; preds = %32, %35, %29
  store i64 %7, ptr %11, align 8
  %41 = getelementptr inbounds nuw i8, ptr %0, i64 40
  store i64 %6, ptr %41, align 8
  br label %42

42:                                               ; preds = %1, %40
  ret void
}